target datalayout = "e-m:e-p270:32:32-p271:32:32-p272:64:64-i64:64-i128:128-f80:128-n8:16:32:64-S128"
target triple = "x86_64-pc-linux-gnu"

%struct.s_x1 = type { i32, i32, ptr, ptr }
%struct.s_x1node = type { ptr, ptr, ptr }

@x1a = internal global ptr null, align 8

; Function Attrs: nounwind null_pointer_is_valid sspstrong uwtable
define hidden i32 @strhash(ptr noundef %0) #2 {
  %2 = alloca ptr, align 8
  %3 = alloca i32, align 4
  store ptr %0, ptr %2, align 8
  call void @llvm.lifetime.start.p0(i64 4, ptr %3) #18
  store i32 0, ptr %3, align 4
  br label %4

4:                                                ; preds = %8, %1
  %5 = load ptr, ptr %2, align 8
  %6 = load i8, ptr %5, align 1
  %7 = icmp ne i8 %6, 0
  br i1 %7, label %8, label %16

8:                                                ; preds = %4
  %9 = load i32, ptr %3, align 4
  %10 = mul i32 %9, 13
  %11 = load ptr, ptr %2, align 8
  %12 = getelementptr i8, ptr %11, i32 1
  store ptr %12, ptr %2, align 8
  %13 = load i8, ptr %11, align 1
  %14 = sext i8 %13 to i32
  %15 = add i32 %10, %14
  store i32 %15, ptr %3, align 4
  br label %4, !llvm.loop !232

16:                                               ; preds = %4
  %17 = load i32, ptr %3, align 4
  call void @llvm.lifetime.end.p0(i64 4, ptr %3) #18
  ret i32 %17
}

; Function Attrs: nounwind null_pointer_is_valid sspstrong uwtable
define internal void @lemon_strcpy(ptr noundef %0, ptr noundef %1) #2 {
  %3 = alloca ptr, align 8
  %4 = alloca ptr, align 8
  store ptr %0, ptr %3, align 8
  store ptr %1, ptr %4, align 8
  br label %5

5:                                                ; preds = %13, %2
  %6 = load ptr, ptr %4, align 8
  %7 = getelementptr i8, ptr %6, i32 1
  store ptr %7, ptr %4, align 8
  %8 = load i8, ptr %6, align 1
  %9 = load ptr, ptr %3, align 8
  %10 = getelementptr i8, ptr %9, i32 1
  store ptr %10, ptr %3, align 8
  store i8 %8, ptr %9, align 1
  %11 = sext i8 %8 to i32
  %12 = icmp ne i32 %11, 0
  br i1 %12, label %13, label %14

13:                                               ; preds = %5
  br label %5, !llvm.loop !198

14:                                               ; preds = %5
  ret void
}

; Function Attrs: nounwind null_pointer_is_valid sspstrong uwtable
define hidden ptr @Strsafe_find(ptr noundef %0) #2 {
  %2 = alloca ptr, align 8
  %3 = alloca ptr, align 8
  %4 = alloca i32, align 4
  %5 = alloca ptr, align 8
  %6 = alloca i32, align 4
  store ptr %0, ptr %3, align 8
  call void @llvm.lifetime.start.p0(i64 4, ptr %4) #18
  call void @llvm.lifetime.start.p0(i64 8, ptr %5) #18
  %7 = load ptr, ptr @x1a, align 8
  %8 = icmp eq ptr %7, null
  br i1 %8, label %9, label %10

9:                                                ; preds = %1
  store ptr null, ptr %2, align 8
  store i32 1, ptr %6, align 4
  br label %50

10:                                               ; preds = %1
  %11 = load ptr, ptr %3, align 8
  %12 = call i32 @strhash(ptr noundef %11)
  %13 = load ptr, ptr @x1a, align 8
  %14 = getelementptr inbounds nuw %struct.s_x1, ptr %13, i32 0, i32 0
  %15 = load i32, ptr %14, align 8
  %16 = sub i32 %15, 1
  %17 = and i32 %12, %16
  store i32 %17, ptr %4, align 4
  %18 = load ptr, ptr @x1a, align 8
  %19 = getelementptr inbounds nuw %struct.s_x1, ptr %18, i32 0, i32 3
  %20 = load ptr, ptr %19, align 8
  %21 = load i32, ptr %4, align 4
  %22 = zext i32 %21 to i64
  %23 = getelementptr ptr, ptr %20, i64 %22
  %24 = load ptr, ptr %23, align 8
  store ptr %24, ptr %5, align 8
  br label %25

25:                                               ; preds = %36, %10
  %26 = load ptr, ptr %5, align 8
  %27 = icmp ne ptr %26, null
  br i1 %27, label %28, label %40

28:                                               ; preds = %25
  %29 = load ptr, ptr %5, align 8
  %30 = getelementptr inbounds nuw %struct.s_x1node, ptr %29, i32 0, i32 0
  %31 = load ptr, ptr %30, align 8
  %32 = load ptr, ptr %3, align 8
  %33 = call i32 @strcmp(ptr noundef %31, ptr noundef %32) #22
  %34 = icmp eq i32 %33, 0
  br i1 %34, label %35, label %36

35:                                               ; preds = %28
  br label %40

36:                                               ; preds = %28
  %37 = load ptr, ptr %5, align 8
  %38 = getelementptr inbounds nuw %struct.s_x1node, ptr %37, i32 0, i32 1
  %39 = load ptr, ptr %38, align 8
  store ptr %39, ptr %5, align 8
  br label %25, !llvm.loop !233

40:                                               ; preds = %35, %25
  %41 = load ptr, ptr %5, align 8
  %42 = icmp ne ptr %41, null
  br i1 %42, label %43, label %47

43:                                               ; preds = %40
  %44 = load ptr, ptr %5, align 8
  %45 = getelementptr inbounds nuw %struct.s_x1node, ptr %44, i32 0, i32 0
  %46 = load ptr, ptr %45, align 8
  br label %48

47:                                               ; preds = %40
  br label %48

48:                                               ; preds = %47, %43
  %49 = phi ptr [ %46, %43 ], [ null, %47 ]
  store ptr %49, ptr %2, align 8
  store i32 1, ptr %6, align 4
  br label %50

50:                                               ; preds = %48, %9
  call void @llvm.lifetime.end.p0(i64 8, ptr %5) #18
  call void @llvm.lifetime.end.p0(i64 4, ptr %4) #18
  %51 = load ptr, ptr %2, align 8
  ret ptr %51
}

; Function Attrs: null_pointer_is_valid sspstrong uwtable
define hidden ptr @Strsafe(ptr noundef %0) #0 {
  %2 = alloca ptr, align 8
  %3 = alloca ptr, align 8
  %4 = alloca ptr, align 8
  %5 = alloca ptr, align 8
  %6 = alloca i32, align 4
  store ptr %0, ptr %3, align 8
  call void @llvm.lifetime.start.p0(i64 8, ptr %4) #18
  call void @llvm.lifetime.start.p0(i64 8, ptr %5) #18
  %7 = load ptr, ptr %3, align 8
  %8 = icmp eq ptr %7, null
  br i1 %8, label %9, label %10

9:                                                ; preds = %1
  store ptr null, ptr %2, align 8
  store i32 1, ptr %6, align 4
  br label %35

10:                                               ; preds = %1
  %11 = load ptr, ptr %3, align 8
  %12 = call ptr @Strsafe_find(ptr noundef %11)
  store ptr %12, ptr %4, align 8
  %13 = load ptr, ptr %4, align 8
  %14 = icmp eq ptr %13, null
  br i1 %14, label %15, label %29

15:                                               ; preds = %10
  %16 = load ptr, ptr %3, align 8
  %17 = call i64 @strlen(ptr noundef %16) #22
  %18 = trunc i64 %17 to i32
  %19 = add i32 %18, 1
  %20 = sext i32 %19 to i64
  %21 = call noalias ptr @malloc(i64 noundef %20) #23
  store ptr %21, ptr %5, align 8
  %22 = icmp ne ptr %21, null
  br i1 %22, label %23, label %29

23:                                               ; preds = %15
  %24 = load ptr, ptr %5, align 8
  %25 = load ptr, ptr %3, align 8
  call void @lemon_strcpy(ptr noundef %24, ptr noundef %25)
  %26 = load ptr, ptr %5, align 8
  store ptr %26, ptr %4, align 8
  %27 = load ptr, ptr %4, align 8
  %28 = call i32 @Strsafe_insert(ptr noundef %27)
  br label %29

29:                                               ; preds = %23, %15, %10
  %30 = load ptr, ptr %4, align 8
  %31 = icmp eq ptr %30, null
  br i1 %31, label %32, label %33

32:                                               ; preds = %29
  call void @memory_error()
  br label %33

33:                                               ; preds = %32, %29
  %34 = load ptr, ptr %4, align 8
  store ptr %34, ptr %2, align 8
  store i32 1, ptr %6, align 4
  br label %35

35:                                               ; preds = %33, %9
  call void @llvm.lifetime.end.p0(i64 8, ptr %5) #18
  call void @llvm.lifetime.end.p0(i64 8, ptr %4) #18
  %36 = load ptr, ptr %2, align 8
  ret ptr %36
}