; Function Attrs: null_pointer_is_valid sspstrong uwtable
define hidden noundef ptr @Strsafe(ptr noundef readonly captures(address_is_null) %0) local_unnamed_addr #0 {
  %2 = icmp eq ptr %0, null
  br i1 %2, label %.thread20, label %3

3:                                                ; preds = %1
  %4 = load ptr, ptr @x1a, align 8
  %5 = icmp eq ptr %4, null
  br i1 %5, label %Strsafe_find.exit.thread, label %6

6:                                                ; preds = %3
  %7 = load i8, ptr %0, align 1
  %.not5.i.i = icmp eq i8 %7, 0
  br i1 %.not5.i.i, label %strhash.exit.i, label %.lr.ph.i.i

.lr.ph.i.i:                                       ; preds = %6, %.lr.ph.i.i
  %8 = phi i8 [ %13, %.lr.ph.i.i ], [ %7, %6 ]
  %.07.i.i = phi i32 [ %12, %.lr.ph.i.i ], [ 0, %6 ]
  %.036.i.i = phi ptr [ %10, %.lr.ph.i.i ], [ %0, %6 ]
  %9 = mul i32 %.07.i.i, 13
  %10 = getelementptr i8, ptr %.036.i.i, i64 1
  %11 = sext i8 %8 to i32
  %12 = add i32 %9, %11
  %13 = load i8, ptr %10, align 1
  %.not.i.i = icmp eq i8 %13, 0
  br i1 %.not.i.i, label %strhash.exit.i, label %.lr.ph.i.i, !llvm.loop !33

strhash.exit.i:                                   ; preds = %.lr.ph.i.i, %6
  %.0.lcssa.i.i = phi i32 [ 0, %6 ], [ %12, %.lr.ph.i.i ]
  %14 = load i32, ptr %4, align 8
  %15 = add i32 %14, -1
  %16 = and i32 %15, %.0.lcssa.i.i
  %17 = getelementptr inbounds nuw i8, ptr %4, i64 16
  %18 = load ptr, ptr %17, align 8
  %19 = zext i32 %16 to i64
  %20 = getelementptr ptr, ptr %18, i64 %19
  %.09.i = load ptr, ptr %20, align 8
  %.not10.i = icmp eq ptr %.09.i, null
  br i1 %.not10.i, label %Strsafe_find.exit.thread, label %.lr.ph.i

21:                                               ; preds = %.lr.ph.i
  %22 = getelementptr inbounds nuw i8, ptr %.011.i, i64 8
  %.0.i = load ptr, ptr %22, align 8
  %.not.i = icmp eq ptr %.0.i, null
  br i1 %.not.i, label %Strsafe_find.exit.thread, label %.lr.ph.i, !llvm.loop !226

.lr.ph.i:                                         ; preds = %strhash.exit.i, %21
  %.011.i = phi ptr [ %.0.i, %21 ], [ %.09.i, %strhash.exit.i ]
  %23 = load ptr, ptr %.011.i, align 8
  %24 = tail call i32 @strcmp(ptr noundef %23, ptr noundef nonnull readonly dereferenceable(1) %0) #45
  %25 = icmp eq i32 %24, 0
  br i1 %25, label %Strsafe_find.exit, label %21

Strsafe_find.exit:                                ; preds = %.lr.ph.i
  %26 = icmp eq ptr %23, null
  br i1 %26, label %Strsafe_find.exit.thread, label %.thread20

Strsafe_find.exit.thread:                         ; preds = %21, %strhash.exit.i, %3, %Strsafe_find.exit
  %27 = tail call i64 @strlen(ptr noundef nonnull dereferenceable(1) %0) #45
  %28 = shl i64 %27, 32
  %sext = add i64 %28, 4294967296
  %29 = ashr exact i64 %sext, 32
  %30 = tail call noalias ptr @malloc(i64 noundef %29) #44
  %.not = icmp eq ptr %30, null
  br i1 %.not, label %.thread, label %.preheader

.preheader:                                       ; preds = %Strsafe_find.exit.thread, %.preheader
  %.02.i = phi ptr [ %33, %.preheader ], [ %30, %Strsafe_find.exit.thread ]
  %.0.i15 = phi ptr [ %31, %.preheader ], [ %0, %Strsafe_find.exit.thread ]
  %31 = getelementptr i8, ptr %.0.i15, i64 1
  %32 = load i8, ptr %.0.i15, align 1
  %33 = getelementptr i8, ptr %.02.i, i64 1
  store i8 %32, ptr %.02.i, align 1
  %.not.i16 = icmp eq i8 %32, 0
  br i1 %.not.i16, label %34, label %.preheader, !llvm.loop !104

34:                                               ; preds = %.preheader
  %35 = tail call i32 @Strsafe_insert(ptr noundef nonnull %30)
  br label %.thread20

.thread:                                          ; preds = %Strsafe_find.exit.thread
  tail call void @memory_error()
  unreachable

.thread20:                                        ; preds = %34, %Strsafe_find.exit, %1
  %.0 = phi ptr [ null, %1 ], [ %30, %34 ], [ %23, %Strsafe_find.exit ]
  ret ptr %.0
}